; ModuleID = '38/1381.c'
source_filename = "38/1381.c"
target datalayout = "e-m:e-p270:32:32-p271:32:32-p272:64:64-i64:64-f80:128-n8:16:32:64-S128"
target triple = "x86_64-pc-linux-gnu"

@.str = private unnamed_addr constant [3 x i8] c"%d\00", align 1
@.str.1 = private unnamed_addr constant [4 x i8] c"%lf\00", align 1
@.str.2 = private unnamed_addr constant [7 x i8] c"%.5lf\0A\00", align 1

; Function Attrs: noinline nounwind uwtable
define dso_local i32 @main() #0 {
  %1 = alloca i32, align 4
  %2 = alloca i32, align 4
  %3 = alloca i32, align 4
  %4 = alloca i32, align 4
  %5 = alloca i32, align 4
  %6 = alloca [1000 x double], align 16
  %7 = alloca double, align 8
  %8 = alloca [1000 x double], align 16
  %9 = alloca [1000 x double], align 16
  store i32 0, i32* %1, align 4
  %10 = call i32 (i8*, ...) @__isoc99_scanf(i8* getelementptr inbounds ([3 x i8], [3 x i8]* @.str, i64 0, i64 0), i32* %2)
  store i32 0, i32* %4, align 4
  br label %11

11:                                               ; preds = %80, %0
  %12 = load i32, i32* %4, align 4
  %13 = load i32, i32* %2, align 4
  %14 = icmp slt i32 %12, %13
  br i1 %14, label %15, label %83

15:                                               ; preds = %11
  %16 = load i32, i32* %4, align 4
  %17 = sext i32 %16 to i64
  %18 = getelementptr inbounds [1000 x double], [1000 x double]* %8, i64 0, i64 %17
  store double 0.000000e+00, double* %18, align 8
  store double 0.000000e+00, double* %7, align 8
  %19 = call i32 (i8*, ...) @__isoc99_scanf(i8* getelementptr inbounds ([3 x i8], [3 x i8]* @.str, i64 0, i64 0), i32* %3)
  store i32 0, i32* %5, align 4
  br label %20

20:                                               ; preds = %38, %15
  %21 = load i32, i32* %5, align 4
  %22 = load i32, i32* %3, align 4
  %23 = icmp slt i32 %21, %22
  br i1 %23, label %24, label %41

24:                                               ; preds = %20
  %25 = load i32, i32* %5, align 4
  %26 = sext i32 %25 to i64
  %27 = getelementptr inbounds [1000 x double], [1000 x double]* %6, i64 0, i64 %26
  %28 = call i32 (i8*, ...) @__isoc99_scanf(i8* getelementptr inbounds ([4 x i8], [4 x i8]* @.str.1, i64 0, i64 0), double* %27)
  %29 = load i32, i32* %5, align 4
  %30 = sext i32 %29 to i64
  %31 = getelementptr inbounds [1000 x double], [1000 x double]* %6, i64 0, i64 %30
  %32 = load double, double* %31, align 8
  %33 = load i32, i32* %3, align 4
  %34 = sitofp i32 %33 to double
  %35 = fdiv double %32, %34
  %36 = load double, double* %7, align 8
  %37 = fadd double %36, %35
  store double %37, double* %7, align 8
  br label %38

38:                                               ; preds = %24
  %39 = load i32, i32* %5, align 4
  %40 = add nsw i32 %39, 1
  store i32 %40, i32* %5, align 4
  br label %20

41:                                               ; preds = %20
  store i32 0, i32* %5, align 4
  br label %42

42:                                               ; preds = %68, %41
  %43 = load i32, i32* %5, align 4
  %44 = load i32, i32* %3, align 4
  %45 = icmp slt i32 %43, %44
  br i1 %45, label %46, label %71

46:                                               ; preds = %42
  %47 = load i32, i32* %5, align 4
  %48 = sext i32 %47 to i64
  %49 = getelementptr inbounds [1000 x double], [1000 x double]* %6, i64 0, i64 %48
  %50 = load double, double* %49, align 8
  %51 = load double, double* %7, align 8
  %52 = fsub double %50, %51
  %53 = load i32, i32* %5, align 4
  %54 = sext i32 %53 to i64
  %55 = getelementptr inbounds [1000 x double], [1000 x double]* %6, i64 0, i64 %54
  %56 = load double, double* %55, align 8
  %57 = load double, double* %7, align 8
  %58 = fsub double %56, %57
  %59 = fmul double %52, %58
  %60 = load i32, i32* %3, align 4
  %61 = sitofp i32 %60 to double
  %62 = fdiv double %59, %61
  %63 = load i32, i32* %4, align 4
  %64 = sext i32 %63 to i64
  %65 = getelementptr inbounds [1000 x double], [1000 x double]* %8, i64 0, i64 %64
  %66 = load double, double* %65, align 8
  %67 = fadd double %66, %62
  store double %67, double* %65, align 8
  br label %68

68:                                               ; preds = %46
  %69 = load i32, i32* %5, align 4
  %70 = add nsw i32 %69, 1
  store i32 %70, i32* %5, align 4
  br label %42

71:                                               ; preds = %42
  %72 = load i32, i32* %4, align 4
  %73 = sext i32 %72 to i64
  %74 = getelementptr inbounds [1000 x double], [1000 x double]* %8, i64 0, i64 %73
  %75 = load double, double* %74, align 8
  %76 = call double @sqrt(double %75) #3
  %77 = load i32, i32* %4, align 4
  %78 = sext i32 %77 to i64
  %79 = getelementptr inbounds [1000 x double], [1000 x double]* %9, i64 0, i64 %78
  store double %76, double* %79, align 8
  br label %80

80:                                               ; preds = %71
  %81 = load i32, i32* %4, align 4
  %82 = add nsw i32 %81, 1
  store i32 %82, i32* %4, align 4
  br label %11

83:                                               ; preds = %11
  store i32 0, i32* %4, align 4
  br label %84

84:                                               ; preds = %94, %83
  %85 = load i32, i32* %4, align 4
  %86 = load i32, i32* %2, align 4
  %87 = icmp slt i32 %85, %86
  br i1 %87, label %88, label %97

88:                                               ; preds = %84
  %89 = load i32, i32* %4, align 4
  %90 = sext i32 %89 to i64
  %91 = getelementptr inbounds [1000 x double], [1000 x double]* %9, i64 0, i64 %90
  %92 = load double, double* %91, align 8
  %93 = call i32 (i8*, ...) @printf(i8* getelementptr inbounds ([7 x i8], [7 x i8]* @.str.2, i64 0, i64 0), double %92)
  br label %94

94:                                               ; preds = %88
  %95 = load i32, i32* %4, align 4
  %96 = add nsw i32 %95, 1
  store i32 %96, i32* %4, align 4
  br label %84

97:                                               ; preds = %84
  ret i32 0
}

declare dso_local i32 @__isoc99_scanf(i8*, ...) #1

; Function Attrs: nounwind
declare dso_local double @sqrt(double) #2

declare dso_local i32 @printf(i8*, ...) #1


!llvm.module.flags = !{!0}
!llvm.ident = !{!1}

!0 = !{i32 1, !"wchar_size", i32 4}
!1 = !{!"clang version 10.0.0-4ubuntu1 "}
