; ModuleID = 'source-C-CXX/37/1381.c'
source_filename = "source-C-CXX/37/1381.c"
target datalayout = "e-m:e-p270:32:32-p271:32:32-p272:64:64-i64:64-f80:128-n8:16:32:64-S128"
target triple = "x86_64-pc-linux-gnu"

@.str = private unnamed_addr constant [3 x i8] c"%d\00", align 1
@.str.1 = private unnamed_addr constant [4 x i8] c"%lf\00", align 1
@.str.2 = private unnamed_addr constant [7 x i8] c"%.5lf\0A\00", align 1

; Function Attrs: nofree nounwind sspstrong uwtable
define dso_local i32 @main() local_unnamed_addr #0 {
  %1 = alloca i32, align 4
  %2 = alloca i32, align 4
  %3 = alloca [1000 x double], align 16
  %4 = alloca [1000 x double], align 16
  %5 = bitcast i32* %1 to i8*
  call void @llvm.lifetime.start.p0i8(i64 4, i8* nonnull %5) #4
  %6 = bitcast i32* %2 to i8*
  call void @llvm.lifetime.start.p0i8(i64 4, i8* nonnull %6) #4
  %7 = bitcast [1000 x double]* %3 to i8*
  call void @llvm.lifetime.start.p0i8(i64 8000, i8* nonnull %7) #4
  %8 = bitcast [1000 x double]* %4 to i8*
  call void @llvm.lifetime.start.p0i8(i64 8000, i8* nonnull %8) #4
  %9 = call i32 (i8*, ...) @__isoc99_scanf(i8* getelementptr inbounds ([3 x i8], [3 x i8]* @.str, i64 0, i64 0), i32* nonnull %1)
  %10 = load i32, i32* %1, align 4, !tbaa !5
  %11 = icmp sgt i32 %10, 0
  br i1 %11, label %14, label %89

12:                                               ; preds = %72
  %13 = icmp sgt i32 %77, 0
  br i1 %13, label %80, label %89

14:                                               ; preds = %0, %72
  %15 = phi i64 [ %76, %72 ], [ 0, %0 ]
  %16 = call i32 (i8*, ...) @__isoc99_scanf(i8* getelementptr inbounds ([3 x i8], [3 x i8]* @.str, i64 0, i64 0), i32* nonnull %2)
  %17 = load i32, i32* %2, align 4, !tbaa !5
  %18 = icmp sgt i32 %17, 0
  br i1 %18, label %27, label %72

19:                                               ; preds = %27
  %20 = icmp sgt i32 %33, 0
  br i1 %20, label %21, label %72

21:                                               ; preds = %19
  %22 = zext i32 %33 to i64
  %23 = and i64 %22, 1
  %24 = icmp eq i32 %33, 1
  br i1 %24, label %60, label %25

25:                                               ; preds = %21
  %26 = and i64 %22, 4294967294
  br label %40

27:                                               ; preds = %14, %27
  %28 = phi i64 [ %37, %27 ], [ 0, %14 ]
  %29 = phi double [ %36, %27 ], [ 0.000000e+00, %14 ]
  %30 = getelementptr inbounds [1000 x double], [1000 x double]* %3, i64 0, i64 %28
  %31 = call i32 (i8*, ...) @__isoc99_scanf(i8* getelementptr inbounds ([4 x i8], [4 x i8]* @.str.1, i64 0, i64 0), double* nonnull %30)
  %32 = load double, double* %30, align 8, !tbaa !9
  %33 = load i32, i32* %2, align 4, !tbaa !5
  %34 = sitofp i32 %33 to double
  %35 = fdiv double %32, %34
  %36 = fadd double %29, %35
  %37 = add nuw nsw i64 %28, 1
  %38 = sext i32 %33 to i64
  %39 = icmp slt i64 %37, %38
  br i1 %39, label %27, label %19, !llvm.loop !11

40:                                               ; preds = %40, %25
  %41 = phi i64 [ 0, %25 ], [ %57, %40 ]
  %42 = phi double [ 0.000000e+00, %25 ], [ %56, %40 ]
  %43 = phi i64 [ %26, %25 ], [ %58, %40 ]
  %44 = getelementptr inbounds [1000 x double], [1000 x double]* %3, i64 0, i64 %41
  %45 = load double, double* %44, align 16, !tbaa !9
  %46 = fsub double %45, %36
  %47 = fmul double %46, %46
  %48 = fdiv double %47, %34
  %49 = fadd double %42, %48
  %50 = or i64 %41, 1
  %51 = getelementptr inbounds [1000 x double], [1000 x double]* %3, i64 0, i64 %50
  %52 = load double, double* %51, align 8, !tbaa !9
  %53 = fsub double %52, %36
  %54 = fmul double %53, %53
  %55 = fdiv double %54, %34
  %56 = fadd double %49, %55
  %57 = add nuw nsw i64 %41, 2
  %58 = add i64 %43, -2
  %59 = icmp eq i64 %58, 0
  br i1 %59, label %60, label %40, !llvm.loop !13

60:                                               ; preds = %40, %21
  %61 = phi double [ undef, %21 ], [ %56, %40 ]
  %62 = phi i64 [ 0, %21 ], [ %57, %40 ]
  %63 = phi double [ 0.000000e+00, %21 ], [ %56, %40 ]
  %64 = icmp eq i64 %23, 0
  br i1 %64, label %72, label %65

65:                                               ; preds = %60
  %66 = getelementptr inbounds [1000 x double], [1000 x double]* %3, i64 0, i64 %62
  %67 = load double, double* %66, align 8, !tbaa !9
  %68 = fsub double %67, %36
  %69 = fmul double %68, %68
  %70 = fdiv double %69, %34
  %71 = fadd double %63, %70
  br label %72

72:                                               ; preds = %65, %60, %14, %19
  %73 = phi double [ 0.000000e+00, %19 ], [ 0.000000e+00, %14 ], [ %61, %60 ], [ %71, %65 ]
  %74 = call double @sqrt(double %73) #4
  %75 = getelementptr inbounds [1000 x double], [1000 x double]* %4, i64 0, i64 %15
  store double %74, double* %75, align 8, !tbaa !9
  %76 = add nuw nsw i64 %15, 1
  %77 = load i32, i32* %1, align 4, !tbaa !5
  %78 = sext i32 %77 to i64
  %79 = icmp slt i64 %76, %78
  br i1 %79, label %14, label %12, !llvm.loop !14

80:                                               ; preds = %12, %80
  %81 = phi i64 [ %85, %80 ], [ 0, %12 ]
  %82 = getelementptr inbounds [1000 x double], [1000 x double]* %4, i64 0, i64 %81
  %83 = load double, double* %82, align 8, !tbaa !9
  %84 = call i32 (i8*, ...) @printf(i8* nonnull dereferenceable(1) getelementptr inbounds ([7 x i8], [7 x i8]* @.str.2, i64 0, i64 0), double %83)
  %85 = add nuw nsw i64 %81, 1
  %86 = load i32, i32* %1, align 4, !tbaa !5
  %87 = sext i32 %86 to i64
  %88 = icmp slt i64 %85, %87
  br i1 %88, label %80, label %89, !llvm.loop !15

89:                                               ; preds = %80, %0, %12
  call void @llvm.lifetime.end.p0i8(i64 8000, i8* nonnull %8) #4
  call void @llvm.lifetime.end.p0i8(i64 8000, i8* nonnull %7) #4
  call void @llvm.lifetime.end.p0i8(i64 4, i8* nonnull %6) #4
  call void @llvm.lifetime.end.p0i8(i64 4, i8* nonnull %5) #4
  ret i32 0
}

; Function Attrs: argmemonly mustprogress nofree nosync nounwind willreturn
declare void @llvm.lifetime.start.p0i8(i64 immarg, i8* nocapture) #1

; Function Attrs: nofree nounwind
declare noundef i32 @__isoc99_scanf(i8* nocapture noundef readonly, ...) local_unnamed_addr #2

; Function Attrs: mustprogress nofree nounwind willreturn
declare double @sqrt(double) local_unnamed_addr #3

; Function Attrs: nofree nounwind
declare noundef i32 @printf(i8* nocapture noundef readonly, ...) local_unnamed_addr #2

; Function Attrs: argmemonly mustprogress nofree nosync nounwind willreturn
declare void @llvm.lifetime.end.p0i8(i64 immarg, i8* nocapture) #1


!llvm.module.flags = !{!0, !1, !2, !3}
!llvm.ident = !{!4}

!0 = !{i32 1, !"wchar_size", i32 4}
!1 = !{i32 7, !"PIC Level", i32 2}
!2 = !{i32 7, !"PIE Level", i32 2}
!3 = !{i32 7, !"uwtable", i32 1}
!4 = !{!"clang version 13.0.0"}
!5 = !{!6, !6, i64 0}
!6 = !{!"int", !7, i64 0}
!7 = !{!"omnipotent char", !8, i64 0}
!8 = !{!"Simple C/C++ TBAA"}
!9 = !{!10, !10, i64 0}
!10 = !{!"double", !7, i64 0}
!11 = distinct !{!11, !12}
!12 = !{!"llvm.loop.mustprogress"}
!13 = distinct !{!13, !12}
!14 = distinct !{!14, !12}
!15 = distinct !{!15, !12}
